target datalayout = "e-m:e-p270:32:32-p271:32:32-p272:64:64-i64:64-i128:128-f80:128-n8:16:32:64-S128"
target triple = "x86_64-pc-linux-gnu"

%struct.AVHWDeviceContext = type { ptr, i32, ptr, ptr, ptr }
%struct.AVVAAPIDeviceContext = type { ptr, i32 }
%struct.AVHWFramesContext = type { ptr, ptr, ptr, ptr, ptr, ptr, ptr, i32, i32, i32, i32, i32 }
%struct.HWMapDescriptor = type { ptr, ptr, ptr, ptr }

@.str.87 = private unnamed_addr constant [22 x i8] c"Destroy surface %#x.\0A\00", align 1

; Function Attrs: nounwind uwtable
define internal void @vaapi_unmap_from_drm(ptr noundef %0, ptr noundef %1) #0 {
  %3 = alloca ptr, align 8
  %4 = alloca ptr, align 8
  %5 = alloca ptr, align 8
  %6 = alloca i32, align 4
  store ptr %0, ptr %3, align 8, !tbaa !97
  store ptr %1, ptr %4, align 8, !tbaa !176
  call void @llvm.lifetime.start.p0(i64 8, ptr %5) #10
  %7 = load ptr, ptr %3, align 8, !tbaa !97
  %8 = getelementptr inbounds nuw %struct.AVHWFramesContext, ptr %7, i32 0, i32 2
  %9 = load ptr, ptr %8, align 8, !tbaa !107
  %10 = getelementptr inbounds nuw %struct.AVHWDeviceContext, ptr %9, i32 0, i32 2
  %11 = load ptr, ptr %10, align 8, !tbaa !43
  store ptr %11, ptr %5, align 8, !tbaa !52
  call void @llvm.lifetime.start.p0(i64 4, ptr %6) #10
  %12 = load ptr, ptr %4, align 8, !tbaa !176
  %13 = getelementptr inbounds nuw %struct.HWMapDescriptor, ptr %12, i32 0, i32 3
  %14 = load ptr, ptr %13, align 8, !tbaa !178
  %15 = ptrtoint ptr %14 to i64
  %16 = trunc i64 %15 to i32
  store i32 %16, ptr %6, align 4, !tbaa !13
  %17 = load ptr, ptr %3, align 8, !tbaa !97
  %18 = load i32, ptr %6, align 4, !tbaa !13
  call void (ptr, i32, ptr, ...) @av_log(ptr noundef %17, i32 noundef 48, ptr noundef @.str.87, i32 noundef %18)
  %19 = load ptr, ptr %5, align 8, !tbaa !52
  %20 = getelementptr inbounds nuw %struct.AVVAAPIDeviceContext, ptr %19, i32 0, i32 0
  %21 = load ptr, ptr %20, align 8, !tbaa !56
  %22 = call i32 @vaDestroySurfaces(ptr noundef %21, ptr noundef %6, i32 noundef 1)
  call void @llvm.lifetime.end.p0(i64 4, ptr %6) #10
  call void @llvm.lifetime.end.p0(i64 8, ptr %5) #10
  ret void
}