; Function Attrs: nounwind uwtable
define internal void @vaapi_unmap_from_drm(ptr noundef %0, ptr noundef readonly captures(none) %1) #0 {
  %3 = alloca i32, align 4
  %4 = getelementptr inbounds nuw i8, ptr %0, i64 16
  %5 = load ptr, ptr %4, align 8, !tbaa !80
  %6 = getelementptr inbounds nuw i8, ptr %5, i64 16
  %7 = load ptr, ptr %6, align 8, !tbaa !31
  call void @llvm.lifetime.start.p0(i64 4, ptr nonnull %3) #11
  %8 = getelementptr inbounds nuw i8, ptr %1, i64 24
  %9 = load ptr, ptr %8, align 8, !tbaa !215
  %10 = ptrtoint ptr %9 to i64
  %11 = trunc i64 %10 to i32
  store i32 %11, ptr %3, align 4, !tbaa !26
  tail call void (ptr, i32, ptr, ...) @av_log(ptr noundef %0, i32 noundef 48, ptr noundef nonnull @.str.87, i32 noundef %11) #11
  %12 = load ptr, ptr %7, align 8, !tbaa !34
  %13 = call i32 @vaDestroySurfaces(ptr noundef %12, ptr noundef nonnull %3, i32 noundef 1) #11
  call void @llvm.lifetime.end.p0(i64 4, ptr nonnull %3) #11
  ret void
}